; Function Attrs: mustprogress uwtable
define hidden void @_ZN7datalog12rule_unifier5applyEP3appbR7obj_refIS1_11ast_managerE(ptr noundef nonnull align 8 dereferenceable(652) %this, ptr noundef %a, i1 noundef zeroext %is_tgt, ptr nocapture noundef nonnull align 8 dereferenceable(16) %res) local_unnamed_addr #3 align 2 personality ptr @__gxx_personality_v0 {
entry:
  %ref.tmp.i = alloca %class.expr_offset, align 8
  %ref.tmp2.i = alloca %class.expr_offset, align 8
  %res_e = alloca %class.obj_ref.40, align 8
  %ref.tmp = alloca %class.expr_offset, align 8
  %0 = load ptr, ptr %this, align 8
  store ptr null, ptr %res_e, align 8
  %m_manager.i = getelementptr inbounds i8, ptr %res_e, i64 8
  store ptr %0, ptr %m_manager.i, align 8
  %m_subst = getelementptr inbounds i8, ptr %this, i64 448
  %m_deltas = getelementptr inbounds i8, ptr %this, i64 644
  %not.is_tgt = xor i1 %is_tgt, true
  %cond = zext i1 %not.is_tgt to i32
  store ptr %a, ptr %ref.tmp, align 8
  %m_offset.i = getelementptr inbounds i8, ptr %ref.tmp, i64 8
  store i32 %cond, ptr %m_offset.i, align 8
  call void @llvm.lifetime.start.p0(i64 16, ptr nonnull %ref.tmp.i)
  call void @llvm.lifetime.start.p0(i64 16, ptr nonnull %ref.tmp2.i)
  store ptr null, ptr %ref.tmp.i, align 8
  %m_offset.i.i = getelementptr inbounds i8, ptr %ref.tmp.i, i64 8
  store i32 0, ptr %m_offset.i.i, align 8
  store ptr null, ptr %ref.tmp2.i, align 8
  %m_offset.i1.i = getelementptr inbounds i8, ptr %ref.tmp2.i, i64 8
  store i32 0, ptr %m_offset.i1.i, align 8
  invoke void @_ZN12substitution5applyEjPKjRK11expr_offsetS4_S4_R7obj_refI4expr11ast_managerE(ptr noundef nonnull align 8 dereferenceable(124) %m_subst, i32 noundef 2, ptr noundef nonnull %m_deltas, ptr noundef nonnull align 8 dereferenceable(12) %ref.tmp, ptr noundef nonnull align 8 dereferenceable(12) %ref.tmp.i, ptr noundef nonnull align 8 dereferenceable(12) %ref.tmp2.i, ptr noundef nonnull align 8 dereferenceable(16) %res_e)
          to label %invoke.cont2 unwind label %lpad

invoke.cont2:                                     ; preds = %entry
  call void @llvm.lifetime.end.p0(i64 16, ptr nonnull %ref.tmp.i)
  call void @llvm.lifetime.end.p0(i64 16, ptr nonnull %ref.tmp2.i)
  %1 = load ptr, ptr %res_e, align 8
  %tobool.not.i = icmp eq ptr %1, null
  br i1 %tobool.not.i, label %if.end.i, label %_ZN11ast_manager7inc_refEP3ast.exit.i

_ZN11ast_manager7inc_refEP3ast.exit.i:            ; preds = %invoke.cont2
  %m_ref_count.i.i.i = getelementptr inbounds i8, ptr %1, i64 8
  %2 = load i32, ptr %m_ref_count.i.i.i, align 4
  %inc.i.i.i = add i32 %2, 1
  store i32 %inc.i.i.i, ptr %m_ref_count.i.i.i, align 4
  br label %if.end.i

if.end.i:                                         ; preds = %_ZN11ast_manager7inc_refEP3ast.exit.i, %invoke.cont2
  %3 = load ptr, ptr %res, align 8
  %tobool.not.i3.i = icmp eq ptr %3, null
  br i1 %tobool.not.i3.i, label %invoke.cont6, label %if.then.i.i.i

if.then.i.i.i:                                    ; preds = %if.end.i
  %m_manager.i.i = getelementptr inbounds i8, ptr %res, i64 8
  %4 = load ptr, ptr %m_manager.i.i, align 8
  %m_ref_count.i.i.i.i = getelementptr inbounds i8, ptr %3, i64 8
  %5 = load i32, ptr %m_ref_count.i.i.i.i, align 4
  %dec.i.i.i.i = add i32 %5, -1
  store i32 %dec.i.i.i.i, ptr %m_ref_count.i.i.i.i, align 4
  %cmp.i.i.i = icmp eq i32 %dec.i.i.i.i, 0
  br i1 %cmp.i.i.i, label %if.then2.i.i.i, label %invoke.cont6

if.then2.i.i.i:                                   ; preds = %if.then.i.i.i
  invoke void @_ZN11ast_manager11delete_nodeEP3ast(ptr noundef nonnull align 8 dereferenceable(976) %4, ptr noundef nonnull %3)
          to label %if.then2.i.i.i.invoke.cont6_crit_edge unwind label %lpad

if.then2.i.i.i.invoke.cont6_crit_edge:            ; preds = %if.then2.i.i.i
  %.pre = load ptr, ptr %res_e, align 8
  br label %invoke.cont6

invoke.cont6:                                     ; preds = %if.then2.i.i.i.invoke.cont6_crit_edge, %if.then.i.i.i, %if.end.i
  %6 = phi ptr [ %.pre, %if.then2.i.i.i.invoke.cont6_crit_edge ], [ %1, %if.then.i.i.i ], [ %1, %if.end.i ]
  store ptr %1, ptr %res, align 8
  %tobool.not.i.i = icmp eq ptr %6, null
  br i1 %tobool.not.i.i, label %_ZN7obj_refI4expr11ast_managerED2Ev.exit, label %if.then.i.i.i1

if.then.i.i.i1:                                   ; preds = %invoke.cont6
  %7 = load ptr, ptr %m_manager.i, align 8
  %m_ref_count.i.i.i.i3 = getelementptr inbounds i8, ptr %6, i64 8
  %8 = load i32, ptr %m_ref_count.i.i.i.i3, align 4
  %dec.i.i.i.i4 = add i32 %8, -1
  store i32 %dec.i.i.i.i4, ptr %m_ref_count.i.i.i.i3, align 4
  %cmp.i.i.i5 = icmp eq i32 %dec.i.i.i.i4, 0
  br i1 %cmp.i.i.i5, label %if.then2.i.i.i6, label %_ZN7obj_refI4expr11ast_managerED2Ev.exit

if.then2.i.i.i6:                                  ; preds = %if.then.i.i.i1
  invoke void @_ZN11ast_manager11delete_nodeEP3ast(ptr noundef nonnull align 8 dereferenceable(976) %7, ptr noundef nonnull %6)
          to label %_ZN7obj_refI4expr11ast_managerED2Ev.exit unwind label %terminate.lpad.i

terminate.lpad.i:                                 ; preds = %if.then2.i.i.i6
  %9 = landingpad { ptr, i32 }
          catch ptr null
  %10 = extractvalue { ptr, i32 } %9, 0
  call void @__clang_call_terminate(ptr %10) #18
  unreachable

_ZN7obj_refI4expr11ast_managerED2Ev.exit:         ; preds = %invoke.cont6, %if.then.i.i.i1, %if.then2.i.i.i6
  ret void

lpad:                                             ; preds = %if.then2.i.i.i, %entry
  %11 = landingpad { ptr, i32 }
          cleanup
  call void @_ZN7obj_refI4expr11ast_managerED2Ev(ptr noundef nonnull align 8 dereferenceable(16) %res_e) #19
  resume { ptr, i32 } %11
}